(dp1
S'output'
p2
S'missing "pass" in view'
p3
sS'layer'
p4
S'ParserContainer'
p5
sS'code'
p6
S'response.write(\'<html>\\r\\n  <head>\\r\\n    <meta charset="utf-8">\\r\\n    <meta http-equiv="X-UA-Compatible" content="IE=edge,chrome=1">\\r\\n    <meta name="viewport" content="width=device-width, initial-scale=1.0" />\\r\\n    <meta name="apple-mobile-web-app-capable" content="yes" />\\r\\n    <link href="\', escape=False)\nresponse.write(URL(\'static\',\'css/stupid.css\'))\nresponse.write(\'" rel="stylesheet" type="text/css"/>\\r\\n    <link href="\', escape=False)\nresponse.write(URL(\'static\',\'css/custom.css\'))\nresponse.write(\'" rel="stylesheet" type="text/css"/>\\r\\n    <link href="\', escape=False)\nresponse.write(URL(\'static\',\'css/calendar.css\'))\nresponse.write(\'" rel="stylesheet" type="text/css"/>\\r\\n    <link href="\', escape=False)\nresponse.write(URL(\'static\',\'css/web2py.css\'))\nresponse.write(\'" rel="stylesheet" type="text/css"/>\\r\\n    <link href="\', escape=False)\nresponse.write(URL(\'static\',\'css/myapp.css\'))\nresponse.write(\'" rel="stylesheet" type="text/css"/>\\r\\n    <link rel="stylesheet" href="\', escape=False)\nresponse.write(URL(\'static\', \'font-awesome-4.6.3/css/font-awesome.min.css\'))\nresponse.write(\'">\\r\\n    \', escape=False)\nresponse.write(\'<script type="text/javascript"><!--\\r\\n    // These variables are used by the web2py_ajax_init function in web2py_ajax.js (which is loaded below).\\r\\n    var w2p_ajax_confirm_message = "\', escape=False)\nresponse.write(T(\'Are you sure you want to delete this object?\'))\nresponse.write(\'";\\r\\n    var w2p_ajax_disable_with_message = "\', escape=False)\nresponse.write(T(\'Working...\'))\nresponse.write(\'";\\r\\n    var w2p_ajax_date_format = "\', escape=False)\nresponse.write(T(\'%Y-%m-%d\'))\nresponse.write(\'";\\r\\n    var w2p_ajax_datetime_format = "\', escape=False)\nresponse.write(T(\'%Y-%m-%d %H:%M:%S\'))\nresponse.write(\'";\\r\\n    var ajax_error_500 = \\\'\', escape=False)\nresponse.write(T.M(\'An error occured, please [[reload %s]] the page\') % URL(args=request.args, vars=request.get_vars))\nresponse.write("\'\\r\\n    //--></script>\\r\\n", escape=False)\nresponse.files.insert(0,URL(\'static\',\'js/jquery.js\'))\nresponse.files.insert(1,URL(\'static\',\'css/calendar.css\'))\nresponse.files.insert(2,URL(\'static\',\'js/calendar.js\'))\nresponse.files.insert(3,URL(\'static\',\'js/web2py.js\'))\nresponse.include_meta()\nresponse.include_files()\nresponse.write(\'\\r\\n\', escape=False)\nresponse.write(\'\\r\\n  </head>\\r\\n  <body class="black">\\r\\n    \', escape=False)\nif response.flash:\n    response.write(\'\\r\\n    <div class="w2p_flash">\\r\\n      \', escape=False)\n    response.write(response.flash)\n    response.write(\'\\r\\n    </div>\\r\\n    \', escape=False)\n    pass\nresponse.write(\'\\r\\n    <header class="black padded">\\r\\n      <div class="container middle max900">\\r\\n        <div class="fill middle">\\r\\n          <label class="ham padded fa fa-bars" for="menu"></label>\\r\\n          <div class="burger accordion">\\r\\n            <input type="checkbox" id="menu"/>\\r\\n            \', escape=False)\nresponse.write(MENU(response.menu,_class=\'menu\'))\nresponse.write(\'\\r\\n            <ul class="menu right">\\r\\n              <li>\\r\\n                \', escape=False)\nresponse.write(auth.navbar(mode=\'dropdown\'))\nresponse.write(\'\\r\\n              </li>\\r\\n            </ul>\\r\\n          </div>\\r\\n        </div>\\r\\n      </div>\\r\\n    </header>\\r\\n    <main class="white">\\r\\n      \', escape=False)\nresponse.write(\'\\r\\n\\r\\n\', escape=False)\nresponse.write(\'\\r\\n\', escape=False)\nresponse.write(\'\\r\\n\\r\\n<div class="main_content">\\r\\n\\r\\n  <p>\\r\\n    <a href="\', escape=False)\nresponse.write(URL(\'default\', \'add\'))\nresponse.write(\'" class="btn">New For Sale Post</a>\\r\\n  </p>\\r\\n\\r\\n\', escape=False)\nfor r in rows:\n    response.write(\'\\r\\n  <div class="post">\\r\\n    <span class="post_content_descriptions">Seller: </span><span>\', escape=False)\n    response.write(r[\'post_author\'])\n    response.write(\'</span><br/>\\r\\n    <span class="post_content_descriptions">Book Title: </span><span>\', escape=False)\n    response.write(r[\'post_title\'])\n    response.write(\'</span><br/>\\r\\n    <span class="post_content_descriptions">Price: </span><span>\', escape=False)\n    response.write(r[\'post_content\'])\n    response.write(\'</span><br/>\\r\\n\\r\\n    <div class="button_row" style="padding: 5px;">\\r\\n      \', escape=False)\n    if auth.user is not None and auth.user.email == r[\'post_author\']:\n        response.write(\'\\r\\n        <a href="\', escape=False)\n        response.write(URL(\'default\', \'edit\', args=[r[\'id\']]))\n        response.write(\'" class="btn">\\r\\n          <i class="fa fa-pencil-square-o"></i> Edit\\r\\n        </a>\\r\\n      \', escape=False)\n        pass\n    response.write(\'\\r\\n      \', escape=False)\n    if auth.user is not None and auth.user.email == r[\'post_author\']:\n        response.write(\'\\r\\n        <a href="\', escape=False)\n        response.write(URL(\'default\', \'delete\', args=[r[\'id\']]))\n        response.write(\'" class="btn">\\r\\n          <i class="fa fa-minus"></i> Delete\\r\\n        </a>\\r\\n      \', escape=False)\n        pass\n    response.write(\'\\r\\n      \', escape=False)\n    if auth.user is not None:\n        response.write(\'\\r\\n        <a href="\', escape=False)\n        response.write(URL(\'default\', \'add_reply\', args=[r[\'id\']]))\n        response.write(\'" class="btn">\\r\\n          <i class="fa fa-plus"></i> Reply\\r\\n        </a>\\r\\n      \', escape=False)\n        pass\n    response.write(\'\\r\\n\\r\\n      <br/>\\r\\n    </div>\\r\\n\\r\\n    <!-- Here we display the replies.  If you are the author of a reply, you can edit/delete it. -->\\r\\n      \', escape=False)\n    for reply in r[\'reply_list\']:\n        response.write(\'\\r\\n        <div class="reply">\\r\\n            \', escape=False)\n        if auth.user is not None:\n            response.write(\'\\r\\n          <!-- Display here a reply -->\\r\\n          <span class="reply_content_descriptions">Seller: </span><span>\', escape=False)\n            response.write(reply[\'reply_author\'])\n            response.write(\'</span><br/>\\r\\n          <span class="reply_content_descriptions">Book: </span><span>\', escape=False)\n            response.write(reply[\'reply_content\'])\n            response.write(\'</span><br/>\\r\\n          \', escape=False)\n            if auth.user is not None and auth.user.email == reply[\'reply_author\']:\n                response.write(\'\\r\\n            <div class="reply options"  style="padding: 5px;">\\r\\n              <a href="\', escape=False)\n                response.write(URL(\'default\', \'edit_reply\', args=[reply[\'reply_id\']], user_signature=True))\n                response.write(\'" class="btn">\\r\\n                <i class="fa fa-pencil-square-o"></i> Edit\\r\\n              </a>\\r\\n              <a href="\', escape=False)\n                response.write(URL(\'default\', \'delete_reply\', args=[reply[\'reply_id\']], user_signature=True))\n                response.write(\'" class="btn">\\r\\n                <i class="fa fa-trash-o"></i> Delete\\r\\n              </a>\\r\\n            </div>\\r\\n\\r\\n          \', escape=False)\n                pass\n            response.write(\'\\r\\n        </div>\\r\\n\\r\\n        <br/>\\r\\n\\r\\n      \', escape=False)\n            pass\n        response.write(\'\\r\\n  </div>\\r\\n\', escape=False)\n        pass\n    response.write(\'\\r\\n\\r\\n</div>\\r\\n\\r\\n\', escape=False)\n    response.write(\'\\r\\n    </main>\\r\\n    <footer class="black">\\r\\n      <div class="silver center padded social">\\r\\n        <a class="fa fa-facebook" href="https://www.facebook.com/sharer/sharer.php?u={url}"></a>\\r\\n        <a class="fa fa-twitter" href="https://twitter.com/home?status={url}"></a>\\r\\n        <a class="fa fa-google" href="https://plus.google.com/share?url={url}"></a>\\r\\n      </div>\\r\\n      <div class="container padded max900">\\r\\n        <div class="fill">\\r\\n          Copyright @ 2016\\r\\n        </div>\\r\\n      </div>\\r\\n    </footer>\\r\\n  </body>\\r\\n  <script src="\', escape=False)\n    response.write(URL(\'static\',\'js/marked.min.js\'))\n    response.write(\'"></script>\\r\\n  <script src="\', escape=False)\n    response.write(URL(\'static\',\'js/vue.min.js\'))\n    response.write(\'"></script>\\r\\n  \', escape=False)\n    response.write("\\r\\n  <script>\\r\\n    jQuery(\'.social a\').each(function(){var t=jQuery(this); t.attr(\'href\',t.attr(\'href\').replace(\'{url}\',encodeURIComponent(window.location.href)));});\\r\\n  </script>\\r\\n</html>\\r\\n", escape=False)'
p7
sS'snapshot'
p8
(dp9
S'exception'
p10
(dp11
S'__module__'
p12
S"'gluon.rocket'"
p13
sS'__getslice__'
p14
S"<method-wrapper '__getslice__' of SocketTimeout object>"
p15
sS'__str__'
p16
S"<method-wrapper '__str__' of SocketTimeout object>"
p17
sS'__reduce__'
p18
S'<built-in method __reduce__ of SocketTimeout object>'
p19
sS'__dict__'
p20
S'{}'
p21
sS'__sizeof__'
p22
S'<built-in method __sizeof__ of SocketTimeout object>'
p23
sS'__weakref__'
p24
S'None'
p25
sS'message'
p26
S"'Socket timed out before request.'"
p27
sS'__init__'
p28
S"<method-wrapper '__init__' of SocketTimeout object>"
p29
sS'__setattr__'
p30
S"<method-wrapper '__setattr__' of SocketTimeout object>"
p31
sS'__reduce_ex__'
p32
S'<built-in method __reduce_ex__ of SocketTimeout object>'
p33
sS'__new__'
p34
S'<built-in method __new__ of type object>'
p35
sS'__format__'
p36
S'<built-in method __format__ of SocketTimeout object>'
p37
sS'__class__'
p38
S"<class 'gluon.rocket.SocketTimeout'>"
p39
sS'__doc__'
p40
S"'Exception for when a socket times out between requests.'"
p41
sS'__getitem__'
p42
S"<method-wrapper '__getitem__' of SocketTimeout object>"
p43
sS'__setstate__'
p44
S'<built-in method __setstate__ of SocketTimeout object>'
p45
sS'__getattribute__'
p46
S"<method-wrapper '__getattribute__' of SocketTimeout object>"
p47
sS'args'
p48
S"('Socket timed out before request.',)"
p49
sS'__subclasshook__'
p50
S'<built-in method __subclasshook__ of type object>'
p51
sS'__unicode__'
p52
S'<built-in method __unicode__ of SocketTimeout object>'
p53
sS'__delattr__'
p54
S"<method-wrapper '__delattr__' of SocketTimeout object>"
p55
sS'__repr__'
p56
S"<method-wrapper '__repr__' of SocketTimeout object>"
p57
sS'__hash__'
p58
S"<method-wrapper '__hash__' of SocketTimeout object>"
p59
ssS'evalue'
p60
S'Socket timed out before request.'
p61
sS'frames'
p62
(lp63
(dp64
S'file'
p65
S'C:\\Users\\Ethan\\Desktop\\CS183\\project\\E-CollegeBooks\\gluon\\rocket.py'
p66
sS'dump'
p67
(dp68
S'self'
p69
S'<WSGIWorker(Thread-36, started daemon 2024)>'
p70
sS'conn'
p71
S'<gluon.rocket.Connection object>'
p72
sS'self.run_app'
p73
S'<bound method WSGIWorker.run_app of <WSGIWorker(Thread-36, started daemon 2024)>>'
p74
ssS'lnum'
p75
I1319
sS'lines'
p76
(dp77
I1314
S'            # Enter connection serve loop'
p78
sI1315
S'            while True:'
p79
sI1316
S'                if __debug__:'
p80
sI1317
S"                    self.err_log.debug('Serving a request')"
p81
sI1318
S'                try:'
p82
sI1319
S'                    self.run_app(conn)'
p83
sI1320
S'                except:'
p84
sI1321
S'                    exc = sys.exc_info()'
p85
sI1322
S'                    handled = self._handleError(*exc)'
p86
sI1323
S'                    if handled:'
p87
ssS'call'
p88
S'(self=<WSGIWorker(Thread-36, started daemon 2024)>)'
p89
sS'func'
p90
S'run'
p91
sa(dp92
g65
S'C:\\Users\\Ethan\\Desktop\\CS183\\project\\E-CollegeBooks\\gluon\\rocket.py'
p93
sg67
(dp94
S'self'
p95
S'<WSGIWorker(Thread-36, started daemon 2024)>'
p96
sS'self.environ'
p97
S'{\'HTTP_ACCEPT\': \'text/html,application/xhtml+xml,application/xml;q=0.9,image/webp,image/apng,*/*;q=0.8\', \'HTTP_ACCEPT_ENCODING\': \'gzip, deflate, br\', \'HTTP_ACCEPT_LANGUAGE\': \'en-US,en;q=0.9\', \'HTTP_CACHE_CONTROL\': \'no-cache\', \'HTTP_CONNECTION\': \'keep-alive\', \'HTTP_COOKIE\': \'Pycharm-5237b3a6=a69615e7-ce51-43b2-b84d-e2e9886...egebooks="3:87fe18e9-8844-4f10-bb8c-717c2dd32bb4"\', \'HTTP_HOST\': \'localhost:8000\', \'HTTP_PRAGMA\': \'no-cache\', \'HTTP_REFERER\': \'http://localhost:8000/ECollegeBooks/default/user/login?_next=/ECollegeBooks/default/index\', \'HTTP_UPGRADE_INSECURE_REQUESTS\': \'1\', ...}'
p98
sS'sock_file'
p99
S'<socket._fileobject object>'
p100
sS'environ'
p101
S'undefined'
p102
sS'self.build_environ'
p103
S'<bound method WSGIWorker.build_environ of <WSGIWorker(Thread-36, started daemon 2024)>>'
p104
sS'conn'
p105
S'<gluon.rocket.Connection object>'
p106
ssg75
I1812
sg76
(dp107
I1807
S'        else:'
p108
sI1808
S'            sock_file = conn.makefile(BUF_SIZE)'
p109
sI1809
S''
sI1810
S'        try:'
p110
sI1811
S'            # Read the headers and build our WSGI environment'
p111
sI1812
S'            self.environ = environ = self.build_environ(sock_file, conn)'
p112
sI1813
S''
sI1814
S'            # Handle 100 Continue'
p113
sI1815
S"            if environ.get('HTTP_EXPECT', '') == '100-continue':"
p114
sI1816
S"                res = environ['SERVER_PROTOCOL'] + ' 100 Continue\\r\\n\\r\\n'"
p115
ssg88
S'(self=<WSGIWorker(Thread-36, started daemon 2024)>, conn=<gluon.rocket.Connection object>)'
p116
sg90
S'run_app'
p117
sa(dp118
g65
S'C:\\Users\\Ethan\\Desktop\\CS183\\project\\E-CollegeBooks\\gluon\\rocket.py'
p119
sg67
(dp120
S'sock_file'
p121
S'<socket._fileobject object>'
p122
sS'self.read_request_line'
p123
S'<bound method WSGIWorker.read_request_line of <WSGIWorker(Thread-36, started daemon 2024)>>'
p124
sS'self'
p125
S'<WSGIWorker(Thread-36, started daemon 2024)>'
p126
sS'request'
p127
g102
ssg75
I1632
sg76
(dp128
I1632
S'        request = self.read_request_line(sock_file)'
p129
sI1633
S''
sI1634
S'        # Copy the Base Environment'
p130
sI1635
S'        environ = self.base_environ.copy()'
p131
sI1636
S''
sI1627
S'                                      "wsgiorg.futures": executor.futures})'
p132
sI1628
S''
sI1629
S'    def build_environ(self, sock_file, conn):'
p133
sI1630
S'        """ Build the execution environment. """'
p134
sI1631
S'        # Grab the request line'
p135
ssg88
S'(self=<WSGIWorker(Thread-36, started daemon 2024)>, sock_file=<socket._fileobject object>, conn=<gluon.rocket.Connection object>)'
p136
sg90
S'build_environ'
p137
sa(dp138
g65
S'C:\\Users\\Ethan\\Desktop\\CS183\\project\\E-CollegeBooks\\gluon\\rocket.py'
p139
sg67
(dp140
S'global SocketTimeout'
p141
S"<class 'gluon.rocket.SocketTimeout'>"
p142
ssg75
I1383
sg76
(dp143
I1378
S''
sI1379
S'                d = sock_file.readline()'
p144
sI1380
S'                if PY3K:'
p145
sI1381
S"                    d = d.decode('ISO-8859-1')"
p146
sI1382
S'        except socket.timeout:'
p147
sI1383
S"            raise SocketTimeout('Socket timed out before request.')"
p148
sI1384
S'        except TypeError:'
p149
sI1385
S'            raise SocketClosed('
p150
sI1386
S"                'SSL bug caused closure of socket.  See '"
p151
sI1387
S'                \'"https://groups.google.com/d/topic/web2py/P_Gw0JxWzCs".\')'
p152
ssg88
S'(self=<WSGIWorker(Thread-36, started daemon 2024)>, sock_file=<socket._fileobject object>)'
p153
sg90
S'read_request_line'
p154
sasS'pyver'
p155
S'Python 2.7.15: C:\\Users\\Ethan\\Anaconda2\\python.exe (prefix: C:\\Users\\Ethan\\Anaconda2)'
p156
sS'etype'
p157
S"<class 'gluon.rocket.SocketTimeout'>"
p158
sS'date'
p159
S'Wed Nov 21 13:50:34 2018'
p160
sS'locals'
p161
(dp162
S'sock_file'
p163
S'<socket._fileobject object>'
p164
sS'self'
p165
S'<WSGIWorker(Thread-36, started daemon 2024)>'
p166
sssS'traceback'
p167
S'Traceback (most recent call last):\n  File "C:\\Users\\Ethan\\Desktop\\CS183\\project\\E-CollegeBooks\\gluon\\rocket.py", line 1319, in run\n    self.run_app(conn)\n  File "C:\\Users\\Ethan\\Desktop\\CS183\\project\\E-CollegeBooks\\gluon\\rocket.py", line 1812, in run_app\n    self.environ = environ = self.build_environ(sock_file, conn)\n  File "C:\\Users\\Ethan\\Desktop\\CS183\\project\\E-CollegeBooks\\gluon\\rocket.py", line 1632, in build_environ\n    request = self.read_request_line(sock_file)\n  File "C:\\Users\\Ethan\\Desktop\\CS183\\project\\E-CollegeBooks\\gluon\\rocket.py", line 1383, in read_request_line\n    raise SocketTimeout(\'Socket timed out before request.\')\nSocketTimeout: Socket timed out before request.\n'
p168
s.